target datalayout = "e-m:e-p270:32:32-p271:32:32-p272:64:64-i64:64-i128:128-f80:128-n8:16:32:64-S128"
target triple = "x86_64-pc-linux-gnu"

%struct.ssl_st = type { i32, i16, i16, ptr, ptr, ptr, ptr, ptr, i32, i32, ptr, ptr, i32, i32, ptr, ptr, ptr, ptr, ptr, ptr, ptr, ptr, i32, i32, [32 x i8], ptr, ptr, ptr, ptr, ptr, ptr, ptr, i64, %struct.crypto_ex_data_st, ptr, i32, i32, i32, i32, i16, ptr, i32, i64, ptr, ptr, ptr, ptr, ptr, ptr, i32, i32, ptr, ptr, i8, i8, i32 }
%struct.crypto_ex_data_st = type { ptr }
%struct.buf_mem_st = type { i64, ptr, i64 }

; Function Attrs: nounwind uwtable
define hidden i32 @ssl3_do_write(ptr noundef %0, i32 noundef %1) #0 {
  %3 = alloca i32, align 4
  %4 = alloca ptr, align 8
  %5 = alloca i32, align 4
  %6 = alloca i32, align 4
  %7 = alloca i32, align 4
  store ptr %0, ptr %4, align 8, !tbaa !6
  store i32 %1, ptr %5, align 4, !tbaa !11
  call void @llvm.lifetime.start.p0(i64 4, ptr %6) #6
  %8 = load ptr, ptr %4, align 8, !tbaa !6
  %9 = load i32, ptr %5, align 4, !tbaa !11
  %10 = load ptr, ptr %4, align 8, !tbaa !6
  %11 = getelementptr inbounds nuw %struct.ssl_st, ptr %10, i32 0, i32 10
  %12 = load ptr, ptr %11, align 8, !tbaa !13
  %13 = getelementptr inbounds nuw %struct.buf_mem_st, ptr %12, i32 0, i32 1
  %14 = load ptr, ptr %13, align 8, !tbaa !38
  %15 = load ptr, ptr %4, align 8, !tbaa !6
  %16 = getelementptr inbounds nuw %struct.ssl_st, ptr %15, i32 0, i32 13
  %17 = load i32, ptr %16, align 4, !tbaa !40
  %18 = sext i32 %17 to i64
  %19 = getelementptr inbounds i8, ptr %14, i64 %18
  %20 = load ptr, ptr %4, align 8, !tbaa !6
  %21 = getelementptr inbounds nuw %struct.ssl_st, ptr %20, i32 0, i32 12
  %22 = load i32, ptr %21, align 8, !tbaa !41
  %23 = call i32 @ssl3_write_bytes(ptr noundef %8, i32 noundef %9, ptr noundef %19, i32 noundef %22)
  store i32 %23, ptr %6, align 4, !tbaa !11
  %24 = load i32, ptr %6, align 4, !tbaa !11
  %25 = icmp slt i32 %24, 0
  br i1 %25, label %26, label %27

26:                                               ; preds = %2
  store i32 -1, ptr %3, align 4
  store i32 1, ptr %7, align 4
  br label %75

27:                                               ; preds = %2
  %28 = load i32, ptr %6, align 4, !tbaa !11
  %29 = load ptr, ptr %4, align 8, !tbaa !6
  %30 = getelementptr inbounds nuw %struct.ssl_st, ptr %29, i32 0, i32 12
  %31 = load i32, ptr %30, align 8, !tbaa !41
  %32 = icmp eq i32 %28, %31
  br i1 %32, label %33, label %64

33:                                               ; preds = %27
  %34 = load ptr, ptr %4, align 8, !tbaa !6
  %35 = getelementptr inbounds nuw %struct.ssl_st, ptr %34, i32 0, i32 16
  %36 = load ptr, ptr %35, align 8, !tbaa !42
  %37 = icmp ne ptr %36, null
  br i1 %37, label %38, label %63

38:                                               ; preds = %33
  %39 = load ptr, ptr %4, align 8, !tbaa !6
  %40 = getelementptr inbounds nuw %struct.ssl_st, ptr %39, i32 0, i32 16
  %41 = load ptr, ptr %40, align 8, !tbaa !42
  %42 = load ptr, ptr %4, align 8, !tbaa !6
  %43 = getelementptr inbounds nuw %struct.ssl_st, ptr %42, i32 0, i32 0
  %44 = load i32, ptr %43, align 8, !tbaa !43
  %45 = load i32, ptr %5, align 4, !tbaa !11
  %46 = load ptr, ptr %4, align 8, !tbaa !6
  %47 = getelementptr inbounds nuw %struct.ssl_st, ptr %46, i32 0, i32 10
  %48 = load ptr, ptr %47, align 8, !tbaa !13
  %49 = getelementptr inbounds nuw %struct.buf_mem_st, ptr %48, i32 0, i32 1
  %50 = load ptr, ptr %49, align 8, !tbaa !38
  %51 = load ptr, ptr %4, align 8, !tbaa !6
  %52 = getelementptr inbounds nuw %struct.ssl_st, ptr %51, i32 0, i32 13
  %53 = load i32, ptr %52, align 4, !tbaa !40
  %54 = load ptr, ptr %4, align 8, !tbaa !6
  %55 = getelementptr inbounds nuw %struct.ssl_st, ptr %54, i32 0, i32 12
  %56 = load i32, ptr %55, align 8, !tbaa !41
  %57 = add nsw i32 %53, %56
  %58 = sext i32 %57 to i64
  %59 = load ptr, ptr %4, align 8, !tbaa !6
  %60 = load ptr, ptr %4, align 8, !tbaa !6
  %61 = getelementptr inbounds nuw %struct.ssl_st, ptr %60, i32 0, i32 17
  %62 = load ptr, ptr %61, align 8, !tbaa !44
  call void %41(i32 noundef 1, i32 noundef %44, i32 noundef %45, ptr noundef %50, i64 noundef %58, ptr noundef %59, ptr noundef %62)
  br label %63

63:                                               ; preds = %38, %33
  store i32 1, ptr %3, align 4
  store i32 1, ptr %7, align 4
  br label %75

64:                                               ; preds = %27
  %65 = load i32, ptr %6, align 4, !tbaa !11
  %66 = load ptr, ptr %4, align 8, !tbaa !6
  %67 = getelementptr inbounds nuw %struct.ssl_st, ptr %66, i32 0, i32 13
  %68 = load i32, ptr %67, align 4, !tbaa !40
  %69 = add nsw i32 %68, %65
  store i32 %69, ptr %67, align 4, !tbaa !40
  %70 = load i32, ptr %6, align 4, !tbaa !11
  %71 = load ptr, ptr %4, align 8, !tbaa !6
  %72 = getelementptr inbounds nuw %struct.ssl_st, ptr %71, i32 0, i32 12
  %73 = load i32, ptr %72, align 8, !tbaa !41
  %74 = sub nsw i32 %73, %70
  store i32 %74, ptr %72, align 8, !tbaa !41
  store i32 0, ptr %3, align 4
  store i32 1, ptr %7, align 4
  br label %75

75:                                               ; preds = %64, %63, %26
  call void @llvm.lifetime.end.p0(i64 4, ptr %6) #6
  %76 = load i32, ptr %3, align 4
  ret i32 %76
}