; Function Attrs: nounwind uwtable
define hidden range(i32 -1, 2) i32 @ssl3_do_write(ptr noundef %0, i32 noundef %1) local_unnamed_addr #0 {
  %3 = getelementptr inbounds nuw i8, ptr %0, i64 56
  %4 = load ptr, ptr %3, align 8, !tbaa !6
  %5 = getelementptr inbounds nuw i8, ptr %4, i64 8
  %6 = load ptr, ptr %5, align 8, !tbaa !35
  %7 = getelementptr inbounds nuw i8, ptr %0, i64 76
  %8 = load i32, ptr %7, align 4, !tbaa !37
  %9 = sext i32 %8 to i64
  %10 = getelementptr inbounds i8, ptr %6, i64 %9
  %11 = getelementptr inbounds nuw i8, ptr %0, i64 72
  %12 = load i32, ptr %11, align 8, !tbaa !38
  %13 = tail call i32 @ssl3_write_bytes(ptr noundef %0, i32 noundef %1, ptr noundef %10, i32 noundef %12) #7
  %14 = icmp slt i32 %13, 0
  br i1 %14, label %35, label %15

15:                                               ; preds = %2
  %16 = load i32, ptr %11, align 8, !tbaa !38
  %17 = icmp eq i32 %13, %16
  br i1 %17, label %18, label %31

18:                                               ; preds = %15
  %19 = getelementptr inbounds nuw i8, ptr %0, i64 96
  %20 = load ptr, ptr %19, align 8, !tbaa !39
  %.not = icmp eq ptr %20, null
  br i1 %.not, label %35, label %21

21:                                               ; preds = %18
  %22 = load i32, ptr %0, align 8, !tbaa !40
  %23 = load ptr, ptr %3, align 8, !tbaa !6
  %24 = getelementptr inbounds nuw i8, ptr %23, i64 8
  %25 = load ptr, ptr %24, align 8, !tbaa !35
  %26 = load i32, ptr %7, align 4, !tbaa !37
  %27 = add nsw i32 %26, %13
  %28 = sext i32 %27 to i64
  %29 = getelementptr inbounds nuw i8, ptr %0, i64 104
  %30 = load ptr, ptr %29, align 8, !tbaa !41
  tail call void %20(i32 noundef 1, i32 noundef %22, i32 noundef %1, ptr noundef %25, i64 noundef %28, ptr noundef nonnull %0, ptr noundef %30) #7
  br label %35

31:                                               ; preds = %15
  %32 = load i32, ptr %7, align 4, !tbaa !37
  %33 = add nsw i32 %32, %13
  store i32 %33, ptr %7, align 4, !tbaa !37
  %34 = sub nsw i32 %16, %13
  store i32 %34, ptr %11, align 8, !tbaa !38
  br label %35

35:                                               ; preds = %18, %21, %2, %31
  %.0 = phi i32 [ 0, %31 ], [ -1, %2 ], [ 1, %21 ], [ 1, %18 ]
  ret i32 %.0
}